target datalayout = "e-m:e-p270:32:32-p271:32:32-p272:64:64-i64:64-i128:128-f80:128-n8:16:32:64-S128"
target triple = "x86_64-pc-linux-gnu"

%struct.Gla_Man_t_ = type { ptr, ptr, ptr, ptr, ptr, ptr, ptr, i32, i32, i32, i32, i32, ptr, ptr, ptr, ptr, ptr, ptr, ptr, i32, ptr, ptr, ptr, i64, i64, i64, i64, i64 }
%struct.Gla_Obj_t_ = type { i32, i32, [4 x i32], %struct.Vec_Int_t_ }
%struct.Vec_Int_t_ = type { i32, i32, ptr }

; Function Attrs: inlinehint nounwind uwtable
define internal i32 @Abc_Var2Lit(i32 noundef %0, i32 noundef %1) #2 {
  %3 = alloca i32, align 4
  %4 = alloca i32, align 4
  store i32 %0, ptr %3, align 4, !tbaa !14
  store i32 %1, ptr %4, align 4, !tbaa !14
  %5 = load i32, ptr %3, align 4, !tbaa !14
  %6 = load i32, ptr %3, align 4, !tbaa !14
  %7 = add nsw i32 %5, %6
  %8 = load i32, ptr %4, align 4, !tbaa !14
  %9 = add nsw i32 %7, %8
  ret i32 %9
}

; Function Attrs: inlinehint nounwind uwtable
define internal i32 @Vec_IntEntry(ptr noundef %0, i32 noundef %1) #2 {
  %3 = alloca ptr, align 8
  %4 = alloca i32, align 4
  store ptr %0, ptr %3, align 8, !tbaa !12
  store i32 %1, ptr %4, align 4, !tbaa !14
  %5 = load ptr, ptr %3, align 8, !tbaa !12
  %6 = getelementptr inbounds nuw %struct.Vec_Int_t_, ptr %5, i32 0, i32 2
  %7 = load ptr, ptr %6, align 8, !tbaa !48
  %8 = load i32, ptr %4, align 4, !tbaa !14
  %9 = sext i32 %8 to i64
  %10 = getelementptr inbounds i32, ptr %7, i64 %9
  %11 = load i32, ptr %10, align 4, !tbaa !14
  ret i32 %11
}

; Function Attrs: inlinehint nounwind uwtable
define internal ptr @Gla_ManObj(ptr noundef %0, i32 noundef %1) #2 {
  %3 = alloca ptr, align 8
  %4 = alloca i32, align 4
  store ptr %0, ptr %3, align 8, !tbaa !3
  store i32 %1, ptr %4, align 4, !tbaa !14
  %5 = load i32, ptr %4, align 4, !tbaa !14
  %6 = icmp ne i32 %5, 0
  br i1 %6, label %7, label %14

7:                                                ; preds = %2
  %8 = load ptr, ptr %3, align 8, !tbaa !3
  %9 = getelementptr inbounds nuw %struct.Gla_Man_t_, ptr %8, i32 0, i32 5
  %10 = load ptr, ptr %9, align 8, !tbaa !49
  %11 = load i32, ptr %4, align 4, !tbaa !14
  %12 = sext i32 %11 to i64
  %13 = getelementptr inbounds %struct.Gla_Obj_t_, ptr %10, i64 %12
  br label %15

14:                                               ; preds = %2
  br label %15

15:                                               ; preds = %14, %7
  %16 = phi ptr [ %13, %7 ], [ null, %14 ]
  ret ptr %16
}

; Function Attrs: nounwind uwtable
define i32 @Gla_ManGetOutLit(ptr noundef %0, i32 noundef %1) #0 {
  %3 = alloca i32, align 4
  %4 = alloca ptr, align 8
  %5 = alloca i32, align 4
  %6 = alloca ptr, align 8
  %7 = alloca i32, align 4
  %8 = alloca i32, align 4
  store ptr %0, ptr %4, align 8, !tbaa !3
  store i32 %1, ptr %5, align 4, !tbaa !14
  call void @llvm.lifetime.start.p0(i64 8, ptr %6) #13
  %9 = load ptr, ptr %4, align 8, !tbaa !3
  %10 = load ptr, ptr %4, align 8, !tbaa !3
  %11 = getelementptr inbounds nuw %struct.Gla_Man_t_, ptr %10, i32 0, i32 4
  %12 = load ptr, ptr %11, align 8, !tbaa !157
  %13 = getelementptr inbounds nuw %struct.Gla_Obj_t_, ptr %12, i32 0, i32 2
  %14 = getelementptr inbounds [4 x i32], ptr %13, i64 0, i64 0
  %15 = load i32, ptr %14, align 8, !tbaa !14
  %16 = call ptr @Gla_ManObj(ptr noundef %9, i32 noundef %15)
  store ptr %16, ptr %6, align 8, !tbaa !26
  call void @llvm.lifetime.start.p0(i64 4, ptr %7) #13
  %17 = load ptr, ptr %6, align 8, !tbaa !26
  %18 = getelementptr inbounds nuw %struct.Gla_Obj_t_, ptr %17, i32 0, i32 3
  %19 = load i32, ptr %5, align 4, !tbaa !14
  %20 = call i32 @Vec_IntEntry(ptr noundef %18, i32 noundef %19)
  store i32 %20, ptr %7, align 4, !tbaa !14
  %21 = load i32, ptr %5, align 4, !tbaa !14
  %22 = icmp eq i32 %21, 0
  br i1 %22, label %23, label %40

23:                                               ; preds = %2
  %24 = load ptr, ptr %6, align 8, !tbaa !26
  %25 = getelementptr inbounds nuw %struct.Gla_Obj_t_, ptr %24, i32 0, i32 1
  %26 = load i32, ptr %25, align 4
  %27 = lshr i32 %26, 5
  %28 = and i32 %27, 1
  %29 = icmp ne i32 %28, 0
  br i1 %29, label %30, label %40

30:                                               ; preds = %23
  %31 = load ptr, ptr %4, align 8, !tbaa !3
  %32 = getelementptr inbounds nuw %struct.Gla_Man_t_, ptr %31, i32 0, i32 4
  %33 = load ptr, ptr %32, align 8, !tbaa !157
  %34 = getelementptr inbounds nuw %struct.Gla_Obj_t_, ptr %33, i32 0, i32 1
  %35 = load i32, ptr %34, align 4
  %36 = lshr i32 %35, 1
  %37 = and i32 %36, 1
  %38 = icmp ne i32 %37, 0
  br i1 %38, label %40, label %39

39:                                               ; preds = %30
  store i32 -1, ptr %3, align 4
  store i32 1, ptr %8, align 4
  br label %50

40:                                               ; preds = %30, %23, %2
  %41 = load i32, ptr %7, align 4, !tbaa !14
  %42 = load ptr, ptr %4, align 8, !tbaa !3
  %43 = getelementptr inbounds nuw %struct.Gla_Man_t_, ptr %42, i32 0, i32 4
  %44 = load ptr, ptr %43, align 8, !tbaa !157
  %45 = getelementptr inbounds nuw %struct.Gla_Obj_t_, ptr %44, i32 0, i32 1
  %46 = load i32, ptr %45, align 4
  %47 = lshr i32 %46, 1
  %48 = and i32 %47, 1
  %49 = call i32 @Abc_Var2Lit(i32 noundef %41, i32 noundef %48)
  store i32 %49, ptr %3, align 4
  store i32 1, ptr %8, align 4
  br label %50

50:                                               ; preds = %40, %39
  call void @llvm.lifetime.end.p0(i64 4, ptr %7) #13
  call void @llvm.lifetime.end.p0(i64 8, ptr %6) #13
  %51 = load i32, ptr %3, align 4
  ret i32 %51
}