; Function Attrs: mustprogress nofree norecurse nosync nounwind willreturn memory(read, inaccessiblemem: none) uwtable
define i32 @Gla_ManGetOutLit(ptr noundef readonly captures(none) %0, i32 noundef %1) local_unnamed_addr #14 {
Gla_ManObj.exit:
  %2 = getelementptr inbounds nuw i8, ptr %0, i64 32
  %3 = load ptr, ptr %2, align 8, !tbaa !159
  %4 = getelementptr inbounds nuw i8, ptr %3, i64 8
  %5 = load i32, ptr %4, align 8, !tbaa !22
  %.not.i = icmp ne i32 %5, 0
  tail call void @llvm.assume(i1 %.not.i)
  %6 = getelementptr inbounds nuw i8, ptr %0, i64 40
  %7 = load ptr, ptr %6, align 8, !tbaa !23
  %8 = sext i32 %5 to i64
  %9 = getelementptr inbounds %struct.Gla_Obj_t_, ptr %7, i64 %8
  %10 = getelementptr i8, ptr %9, i64 32
  %.val = load ptr, ptr %10, align 8, !tbaa !11
  %11 = sext i32 %1 to i64
  %12 = getelementptr inbounds i32, ptr %.val, i64 %11
  %13 = load i32, ptr %12, align 4, !tbaa !22
  %14 = icmp eq i32 %1, 0
  br i1 %14, label %15, label %23

15:                                               ; preds = %Gla_ManObj.exit
  %16 = getelementptr inbounds nuw i8, ptr %9, i64 4
  %17 = load i32, ptr %16, align 4
  %18 = and i32 %17, 32
  %.not = icmp eq i32 %18, 0
  br i1 %.not, label %23, label %19

19:                                               ; preds = %15
  %20 = getelementptr inbounds nuw i8, ptr %3, i64 4
  %21 = load i32, ptr %20, align 4
  %22 = and i32 %21, 2
  %.not9 = icmp eq i32 %22, 0
  br i1 %.not9, label %30, label %23

23:                                               ; preds = %19, %15, %Gla_ManObj.exit
  %24 = getelementptr inbounds nuw i8, ptr %3, i64 4
  %25 = load i32, ptr %24, align 4
  %26 = lshr i32 %25, 1
  %27 = and i32 %26, 1
  %28 = shl nsw i32 %13, 1
  %29 = or disjoint i32 %27, %28
  br label %30

30:                                               ; preds = %19, %23
  %.0 = phi i32 [ %29, %23 ], [ -1, %19 ]
  ret i32 %.0
}